Microchip MPLAB XC8 Compiler V2.36

Linker command line:

-W-3 --edf=C:\Program Files\Microchip\xc8\v2.36\pic\dat\en_msgs.txt -cn \
  -h+.ca/dist/Config_2/production\standart_23.X.production.sym \
  --cmf=.ca/dist/Config_2/production\standart_23.X.production.cmf -z \
  -Q16F1823 -oC:\Users\vlads\AppData\Local\Temp\xcAs3f8.4 \
  --defsym=__MPLAB_BUILD=1 \
  -M.ca/dist/Config_2/production/standart_23.X.production.map \
  --md=C:\Users\vlads\AppData\Local\Temp\xcAs3f8.dat -E1 -ver=XC8 Compiler \
  --acfsm=1493 -ACODE=00h-07FFh -ASTRCODE=00h-07FFh -ASTRING=00h-0FFhx8 \
  -ACONST=00h-0FFhx8 -AENTRY=00h-0FFhx8 -ACOMMON=070h-07Fh \
  -ABANK0=020h-06Fh -ABANK1=0A0h-0BFh -ABIGRAM=02000h-0206Fh \
  -ARAM=020h-06Fh,0A0h-0BFh -AABS1=020h-07Fh,0A0h-0BFh -ASFR0=00h-01Fh \
  -ASFR1=080h-09Fh -ASFR2=0100h-016Fh -ASFR3=0180h-01EFh -ASFR4=0200h-026Fh \
  -ASFR5=0280h-02EFh -ASFR6=0300h-036Fh -ASFR7=0380h-03EFh \
  -ASFR8=0400h-046Fh -ASFR9=0480h-04EFh -ASFR10=0500h-056Fh \
  -ASFR11=0580h-05EFh -ASFR12=0600h-066Fh -ASFR13=0680h-06EFh \
  -ASFR14=0700h-076Fh -ASFR15=0780h-07EFh -ASFR16=0800h-086Fh \
  -ASFR17=0880h-08EFh -ASFR18=0900h-096Fh -ASFR19=0980h-09EFh \
  -ASFR20=0A00h-0A6Fh -ASFR21=0A80h-0AEFh -ASFR22=0B00h-0B6Fh \
  -ASFR23=0B80h-0BEFh -ASFR24=0C00h-0C6Fh -ASFR25=0C80h-0CEFh \
  -ASFR26=0D00h-0D6Fh -ASFR27=0D80h-0DEFh -ASFR28=0E00h-0E6Fh \
  -ASFR29=0E80h-0EEFh -ASFR30=0F00h-0F6Fh -ASFR31=0F80h-0FEFh \
  -ACONFIG=08007h-08008h -DCONFIG=2 -AIDLOC=08000h-08003h -DIDLOC=2 \
  -AEEDATA=00h-0FFh/0F000h -peeprom_data=EEDATA -DEEDATA=2 -DCODE=2 \
  -DSTRCODE=2 -DSTRING=2 -DCONST=2 -DENTRY=2 \
  -preset_vec=00h,intentry=04h,init,end_init -ppowerup=CODE -pcinit=CODE \
  -pfunctab=ENTRY -k C:\Users\vlads\AppData\Local\Temp\xcAs3f8.o \
  .ca/dist/Config_2/production\standart_23.X.production.o 

Object code version is 3.11

Machine type is 16F1823



                Name                               Link     Load   Length Selector   Space Scale
C:\Users\vlads\AppData\Local\Temp\xcAs3f8.o
                end_init                             16       16        1        8       0
                reset_vec                             0        0        1        0       0
                config                             8007     8007        2        0       4
                idloc                              8000     8000        4        0       5
.ca/dist/Config_2/production\standart_23.X.production.o
                cinit                                17       17        F        8       0
                intentry                              4        4       12        8       0
                config                             8007     8007        2        0       4
                idloc                              8000     8000        4        0       5
                text50                              3B4      3B4        C        8       0
                text49                              44C      44C        1      896       0
                text48                              38E      38E        E        8       0
                text47                              41C      41C        6        8       0
                text46                              42A      42A        4        8       0
                text45                              380      380        E        8       0
                text44                              372      372        E        8       0
                text43                              416      416        6        8       0
                text42                              279      279       1D        8       0
                text41                              364      364        E        8       0
                text40                               FC       FC       3B        8       0
                text39                              3DF      3DF        9        8       0
                text38                               26       26       54        8       0
                text37                              426      426        4        8       0
                text36                              1CB      1CB       29        8       0
                text35                              44B      44B        1      896       0
                text34                              3CB      3CB        B        8       0
                text32                              25B      25B       1E        8       0
                text31                              306      306       12        8       0
                text30                               C0       C0       3C        8       0
                text29                              23C      23C       1F        8       0
                text28                              3C0      3C0        B        8       0
                text27                              318      318       11        8       0
                text26                              3A8      3A8        C        8       0
                text25                              3D6      3D6        9        8       0
                text24                              39C      39C        C        8       0
                text23                              296      296       1C        8       0
                text22                              16C      16C       35        8       0
                text21                              1F4      1F4       28        8       0
                text20                              2C8      2C8       16        8       0
                text19                              42E      42E        3        8       0
                text18                              410      410        6        8       0
                text17                               7A       7A       46        8       0
                text16                              1A1      1A1       2A        8       0
                text15                              3E8      3E8        8        8       0
                text14                              3F7      3F7        7        8       0
                text13                              2DE      2DE       15        8       0
                text12                              40A      40A        6        8       0
                text11                              2F3      2F3       13        8       0
                text10                              404      404        6        8       0
                text9                               339      339        F        8       0
                text8                               422      422        4        8       0
                text7                               3F0      3F0        7        8       0
                text6                               43D      43D        2      87A       0
                text5                               329      329       10        8       0
                text4                               21C      21C       20        8       0
                text3                               356      356        E        8       0
                text2                               137      137       35        8       0
                text1                               2B2      2B2       16        8       0
                maintext                            348      348        E        8       0
                cstackBANK0                          44       44        2       20       1
                cstackCOMMON                         70       70        6       70       1
                clrtext                             3FE      3FE        6        8       0
                bssBANK0                             20       20       1F       20       1
                bssCOMMON                            76       76        5       70       1
                bitbssCOMMON                        3D8       7B        1       70       1     8
                nvBANK0                              3F       3F        5       20       1
                stringtext18                        44A      44A        1      87E       0
                stringtext17                        449      449        1      87E       0
                stringtext16                        448      448        1      87E       0
                stringtext15                        447      447        1      87E       0
                stringtext14                        446      446        1      87E       0
                stringtext13                        445      445        1      87E       0
                stringtext12                        444      444        1      87E       0
                stringtext11                        443      443        1      87E       0
                stringtext10                        43B      43B        2      862       0
                stringtext9                         439      439        2      862       0
                stringtext8                         442      442        1      87E       0
                stringtext7                         441      441        1      87E       0
                stringtext6                         440      440        1      87E       0
                stringtext5                         43F      43F        1      87E       0
                stringtext4                         437      437        2      862       0
                stringtext3                         435      435        2      862       0
                stringtext2                         433      433        2      862       0
                stringtext1                         431      431        2      862       0

TOTAL           Name                               Link     Load   Length     Space
        CLASS   CODE           
                end_init                             16       16        1         0
                cinit                                17       17        F         0
                intentry                              4        4       12         0
                reset_vec                             0        0        1         0
                text50                              3B4      3B4        C         0
                text49                              44C      44C        1         0
                text48                              38E      38E        E         0
                text47                              41C      41C        6         0
                text46                              42A      42A        4         0
                text45                              380      380        E         0
                text44                              372      372        E         0
                text43                              416      416        6         0
                text42                              279      279       1D         0
                text41                              364      364        E         0
                text40                               FC       FC       3B         0
                text39                              3DF      3DF        9         0
                text38                               26       26       54         0
                text37                              426      426        4         0
                text36                              1CB      1CB       29         0
                text35                              44B      44B        1         0
                text34                              3CB      3CB        B         0
                text32                              25B      25B       1E         0
                text31                              306      306       12         0
                text30                               C0       C0       3C         0
                text29                              23C      23C       1F         0
                text28                              3C0      3C0        B         0
                text27                              318      318       11         0
                text26                              3A8      3A8        C         0
                text25                              3D6      3D6        9         0
                text24                              39C      39C        C         0
                text23                              296      296       1C         0
                text22                              16C      16C       35         0
                text21                              1F4      1F4       28         0
                text20                              2C8      2C8       16         0
                text19                              42E      42E        3         0
                text18                              410      410        6         0
                text17                               7A       7A       46         0
                text16                              1A1      1A1       2A         0
                text15                              3E8      3E8        8         0
                text14                              3F7      3F7        7         0
                text13                              2DE      2DE       15         0
                text12                              40A      40A        6         0
                text11                              2F3      2F3       13         0
                text10                              404      404        6         0
                text9                               339      339        F         0
                text8                               422      422        4         0
                text7                               3F0      3F0        7         0
                text6                               43D      43D        2         0
                text5                               329      329       10         0
                text4                               21C      21C       20         0
                text3                               356      356        E         0
                text2                               137      137       35         0
                text1                               2B2      2B2       16         0
                maintext                            348      348        E         0
                clrtext                             3FE      3FE        6         0

        CLASS   STRCODE        
                stringtext18                        44A      44A        1         0
                stringtext17                        449      449        1         0
                stringtext16                        448      448        1         0
                stringtext15                        447      447        1         0
                stringtext14                        446      446        1         0
                stringtext13                        445      445        1         0
                stringtext12                        444      444        1         0
                stringtext11                        443      443        1         0
                stringtext10                        43B      43B        2         0
                stringtext9                         439      439        2         0
                stringtext8                         442      442        1         0
                stringtext7                         441      441        1         0
                stringtext6                         440      440        1         0
                stringtext5                         43F      43F        1         0
                stringtext4                         437      437        2         0
                stringtext3                         435      435        2         0
                stringtext2                         433      433        2         0
                stringtext1                         431      431        2         0

        CLASS   STRING         

        CLASS   CONST          

        CLASS   ENTRY          

        CLASS   COMMON         
                cstackCOMMON                         70       70        6         1
                bssCOMMON                            76       76        5         1
                bitbssCOMMON                        3D8       7B        1         1

        CLASS   BANK0          
                cstackBANK0                          44       44        2         1
                bssBANK0                             20       20       1F         1
                nvBANK0                              3F       3F        5         1

        CLASS   BANK1          

        CLASS   BIGRAM         

        CLASS   RAM            

        CLASS   ABS1           
                abs_s1                               7E       7E        2         1

        CLASS   SFR0           

        CLASS   SFR1           

        CLASS   SFR2           

        CLASS   SFR3           

        CLASS   SFR4           

        CLASS   SFR5           

        CLASS   SFR6           

        CLASS   SFR7           

        CLASS   SFR8           

        CLASS   SFR9           

        CLASS   SFR10          

        CLASS   SFR11          

        CLASS   SFR12          

        CLASS   SFR13          

        CLASS   SFR14          

        CLASS   SFR15          

        CLASS   SFR16          

        CLASS   SFR17          

        CLASS   SFR18          

        CLASS   SFR19          

        CLASS   SFR20          

        CLASS   SFR21          

        CLASS   SFR22          

        CLASS   SFR23          

        CLASS   SFR24          

        CLASS   SFR25          

        CLASS   SFR26          

        CLASS   SFR27          

        CLASS   SFR28          

        CLASS   SFR29          

        CLASS   SFR30          

        CLASS   SFR31          

        CLASS   CONFIG         
                config                             8007     8007        2         4

        CLASS   IDLOC          
                idloc                              8000     8000        4         5

        CLASS   EEDATA         

        CLASS   BANK31         

        CLASS   BANK30         

        CLASS   BANK29         

        CLASS   BANK28         

        CLASS   BANK27         

        CLASS   BANK26         

        CLASS   BANK25         

        CLASS   BANK24         

        CLASS   BANK23         

        CLASS   BANK22         

        CLASS   BANK21         

        CLASS   BANK20         

        CLASS   BANK19         

        CLASS   BANK18         

        CLASS   BANK17         

        CLASS   BANK16         

        CLASS   BANK15         

        CLASS   BANK14         

        CLASS   BANK13         

        CLASS   BANK12         

        CLASS   BANK11         

        CLASS   BANK10         

        CLASS   BANK9          

        CLASS   BANK8          

        CLASS   BANK7          

        CLASS   BANK6          

        CLASS   BANK5          

        CLASS   BANK4          

        CLASS   BANK3          

        CLASS   BANK2          

        CLASS   HEAP           

        CLASS   STACK          



SEGMENTS        Name                           Load    Length   Top    Selector   Space  Class     Delta

                reset_vec                      000000  000001  000001         0       0  CODE        2
                intentry                       000004  00042D  000431         8       0  CODE        2
                bssBANK0                       000020  000026  000046        20       1  BANK0       1
                cstackCOMMON                   000070  00000C  00007C        70       1  COMMON      1
                stringtext1                    000431  00000C  00043D       862       0  STRCODE     2
                text6                          00043D  000002  00043F       87A       0  CODE        2
                stringtext5                    00043F  00000C  00044B       87E       0  STRCODE     2
                text35                         00044B  000002  00044D       896       0  CODE        2


UNUSED ADDRESS RANGES

        Name                Unused          Largest block    Delta
        BANK0            00046-0006F              2A           1
        BANK1            000A0-000BF              20           1
        BIGRAM           02000-0206F              70           1
        CODE             00001-00003               3           2
                         0044D-007FF             3B3
        COMMON           0007C-0007D               2           1
        CONST            00001-00003               3           2
                         0044D-007FF             100
        EEDATA           0F000-0F0FF             100           2
        ENTRY            00001-00003               3           2
                         0044D-007FF             100
        RAM              00046-0006F              2A           1
                         000A0-000BF              20
        SFR0             00000-0001F              20           1
        SFR1             00080-0009F              20           1
        SFR10            00500-0056F              70           1
        SFR11            00580-005EF              70           1
        SFR12            00600-0066F              70           1
        SFR13            00680-006EF              70           1
        SFR14            00700-0076F              70           1
        SFR15            00780-007EF              70           1
        SFR16            00800-0086F              70           1
        SFR17            00880-008EF              70           1
        SFR18            00900-0096F              70           1
        SFR19            00980-009EF              70           1
        SFR2             00100-0016F              70           1
        SFR20            00A00-00A6F              70           1
        SFR21            00A80-00AEF              70           1
        SFR22            00B00-00B6F              70           1
        SFR23            00B80-00BEF              70           1
        SFR24            00C00-00C6F              70           1
        SFR25            00C80-00CEF              70           1
        SFR26            00D00-00D6F              70           1
        SFR27            00D80-00DEF              70           1
        SFR28            00E00-00E6F              70           1
        SFR29            00E80-00EEF              70           1
        SFR3             00180-001EF              70           1
        SFR30            00F00-00F6F              70           1
        SFR31            00F80-00FEF              70           1
        SFR4             00200-0026F              70           1
        SFR5             00280-002EF              70           1
        SFR6             00300-0036F              70           1
        SFR7             00380-003EF              70           1
        SFR8             00400-0046F              70           1
        SFR9             00480-004EF              70           1
        STRCODE          00001-00003               3           2
                         0044D-007FF             3B3
        STRING           00001-00003               3           2
                         0044D-007FF             100

                                  Symbol Table

ADC_GetConversion@channel                 cstackCOMMON 00073
EEPROM_ReadByte@addr                      cstackCOMMON 00074
EEPROM_WriteByte@addr                     cstackCOMMON 00075
EEPROM_WriteByte@dt                       cstackCOMMON 00072
EEPROM_WriteByte@status                   bitbssCOMMON 003D8
TMR0_SetInterruptHandler@InterruptHandler cstackCOMMON 00072
TMR2_SetInterruptHandler@InterruptHandler cstackCOMMON 00072
_ADCON0                                   (abs)        0009D
_ADCON0bits                               (abs)        0009D
_ADCON1                                   (abs)        0009E
_ADC_GetConversion                        text20       002C8
_ADC_Initialize                           text15       003E8
_ADRESH                                   (abs)        0009C
_ADRESL                                   (abs)        0009B
_ANSELA                                   (abs)        0018C
_ANSELAbits                               (abs)        0018C
_ANSELC                                   (abs)        0018E
_ANSELCbits                               (abs)        0018E
_APFCON                                   (abs)        0011D
_BORCON                                   (abs)        00116
_EEADR                                    (abs)        00191
_EECON2                                   (abs)        00196
_EEDATA                                   (abs)        00193
_EEPROM_ReadByte                          text5        00329
_EEPROM_WriteByte                         text4        0021C
_GIE                                      (abs)        0005F
_INTCONbits                               (abs)        0000B
_INTERRUPT_InterruptManager               intentry     00004
_LATA                                     (abs)        0010C
_LATAbits                                 (abs)        0010C
_LATC                                     (abs)        0010E
_LATCbits                                 (abs)        0010E
_OPTION_REG                               (abs)        00095
_OPTION_REGbits                           (abs)        00095
_OSCCON                                   (abs)        00099
_OSCILLATOR_Initialize                    text14       003F7
_OSCTUNE                                  (abs)        00098
_PIE1bits                                 (abs)        00091
_PIN_MANAGER_Initialize                   text13       002DE
_PIR1bits                                 (abs)        00011
_PORTAbits                                (abs)        0000C
_PORTCbits                                (abs)        0000E
_PR2                                      (abs)        0001B
_RD                                       (abs)        00CA8
_SYSTEM_Initialize                        text7        003F0
_T2CON                                    (abs)        0001C
_T2CONbits                                (abs)        0001C
_TMR0                                     (abs)        00015
_TMR0_DefaultInterruptHandler             text49       0044C
_TMR0_ISR                                 text48       0038E
_TMR0_Initialize                          text11       002F3
_TMR0_InterruptHandler                    nvBANK0      0003F
_TMR0_SetInterruptHandler                 text12       0040A
_TMR2                                     (abs)        0001A
_TMR2_DefaultInterruptHandler             text35       0044B
_TMR2_ISR                                 text34       003CB
_TMR2_Initialize                          text9        00339
_TMR2_InterruptHandler                    nvBANK0      00041
_TMR2_SetInterruptHandler                 text10       00404
_TMR2_StartTimer                          text6        0043D
_TRISA                                    (abs)        0008C
_TRISAbits                                (abs)        0008C
_TRISC                                    (abs)        0008E
_TRISCbits                                (abs)        0008E
_WDTCON                                   (abs)        00097
_WDT_Initialize                           text8        00422
_WPUA                                     (abs)        0020C
_WPUC                                     (abs)        0020E
_WR                                       (abs)        00CA9
_WREN                                     (abs)        00CAA
__Habs1                                   abs1         00000
__Hbank0                                  bank0        00000
__Hbank1                                  bank1        00000
__Hbank10                                 bank10       00000
__Hbank11                                 bank11       00000
__Hbank12                                 bank12       00000
__Hbank13                                 bank13       00000
__Hbank14                                 bank14       00000
__Hbank15                                 bank15       00000
__Hbank16                                 bank16       00000
__Hbank17                                 bank17       00000
__Hbank18                                 bank18       00000
__Hbank19                                 bank19       00000
__Hbank2                                  bank2        00000
__Hbank20                                 bank20       00000
__Hbank21                                 bank21       00000
__Hbank22                                 bank22       00000
__Hbank23                                 bank23       00000
__Hbank24                                 bank24       00000
__Hbank25                                 bank25       00000
__Hbank26                                 bank26       00000
__Hbank27                                 bank27       00000
__Hbank28                                 bank28       00000
__Hbank29                                 bank29       00000
__Hbank3                                  bank3        00000
__Hbank30                                 bank30       00000
__Hbank31                                 bank31       00000
__Hbank4                                  bank4        00000
__Hbank5                                  bank5        00000
__Hbank6                                  bank6        00000
__Hbank7                                  bank7        00000
__Hbank8                                  bank8        00000
__Hbank9                                  bank9        00000
__Hbigram                                 bigram       00000
__HbitbssCOMMON                           bitbssCOMMON 00000
__HbssBANK0                               bssBANK0     00000
__HbssCOMMON                              bssCOMMON    00000
__Hcinit                                  cinit        00026
__Hclrtext                                clrtext      00000
__Hcode                                   code         00000
__Hcommon                                 common       00000
__Hconfig                                 config       08009
__HcstackBANK0                            cstackBANK0  00000
__HcstackCOMMON                           cstackCOMMON 00000
__Heeprom_data                            eeprom_data  00000
__Hend_init                               end_init     00017
__Hfunctab                                functab      00000
__Hheap                                   heap         00000
__Hidloc                                  idloc        08004
__Hinit                                   init         00016
__Hintentry                               intentry     00016
__Hmaintext                               maintext     00000
__HnvBANK0                                nvBANK0      00000
__Hpowerup                                powerup      00000
__Hram                                    ram          00000
__Hreset_vec                              reset_vec    00001
__Hsfr0                                   sfr0         00000
__Hsfr1                                   sfr1         00000
__Hsfr10                                  sfr10        00000
__Hsfr11                                  sfr11        00000
__Hsfr12                                  sfr12        00000
__Hsfr13                                  sfr13        00000
__Hsfr14                                  sfr14        00000
__Hsfr15                                  sfr15        00000
__Hsfr16                                  sfr16        00000
__Hsfr17                                  sfr17        00000
__Hsfr18                                  sfr18        00000
__Hsfr19                                  sfr19        00000
__Hsfr2                                   sfr2         00000
__Hsfr20                                  sfr20        00000
__Hsfr21                                  sfr21        00000
__Hsfr22                                  sfr22        00000
__Hsfr23                                  sfr23        00000
__Hsfr24                                  sfr24        00000
__Hsfr25                                  sfr25        00000
__Hsfr26                                  sfr26        00000
__Hsfr27                                  sfr27        00000
__Hsfr28                                  sfr28        00000
__Hsfr29                                  sfr29        00000
__Hsfr3                                   sfr3         00000
__Hsfr30                                  sfr30        00000
__Hsfr31                                  sfr31        00000
__Hsfr4                                   sfr4         00000
__Hsfr5                                   sfr5         00000
__Hsfr6                                   sfr6         00000
__Hsfr7                                   sfr7         00000
__Hsfr8                                   sfr8         00000
__Hsfr9                                   sfr9         00000
__Hspace_0                                (abs)        0044D
__Hspace_1                                (abs)        003D9
__Hspace_2                                (abs)        00000
__Hspace_3                                (abs)        00000
__Hspace_4                                (abs)        10010
__Hstack                                  stack        00000
__Hstrings                                strings      00000
__Hstringtext1                            stringtext1  00000
__Hstringtext10                           stringtext10 00000
__Hstringtext11                           stringtext11 00000
__Hstringtext12                           stringtext12 00000
__Hstringtext13                           stringtext13 00000
__Hstringtext14                           stringtext14 00000
__Hstringtext15                           stringtext15 00000
__Hstringtext16                           stringtext16 00000
__Hstringtext17                           stringtext17 00000
__Hstringtext18                           stringtext18 00000
__Hstringtext2                            stringtext2  00000
__Hstringtext3                            stringtext3  00000
__Hstringtext4                            stringtext4  00000
__Hstringtext5                            stringtext5  00000
__Hstringtext6                            stringtext6  00000
__Hstringtext7                            stringtext7  00000
__Hstringtext8                            stringtext8  00000
__Hstringtext9                            stringtext9  00000
__Htext                                   text         00000
__Labs1                                   abs1         00000
__Lbank0                                  bank0        00000
__Lbank1                                  bank1        00000
__Lbank10                                 bank10       00000
__Lbank11                                 bank11       00000
__Lbank12                                 bank12       00000
__Lbank13                                 bank13       00000
__Lbank14                                 bank14       00000
__Lbank15                                 bank15       00000
__Lbank16                                 bank16       00000
__Lbank17                                 bank17       00000
__Lbank18                                 bank18       00000
__Lbank19                                 bank19       00000
__Lbank2                                  bank2        00000
__Lbank20                                 bank20       00000
__Lbank21                                 bank21       00000
__Lbank22                                 bank22       00000
__Lbank23                                 bank23       00000
__Lbank24                                 bank24       00000
__Lbank25                                 bank25       00000
__Lbank26                                 bank26       00000
__Lbank27                                 bank27       00000
__Lbank28                                 bank28       00000
__Lbank29                                 bank29       00000
__Lbank3                                  bank3        00000
__Lbank30                                 bank30       00000
__Lbank31                                 bank31       00000
__Lbank4                                  bank4        00000
__Lbank5                                  bank5        00000
__Lbank6                                  bank6        00000
__Lbank7                                  bank7        00000
__Lbank8                                  bank8        00000
__Lbank9                                  bank9        00000
__Lbigram                                 bigram       00000
__LbitbssCOMMON                           bitbssCOMMON 00000
__LbssBANK0                               bssBANK0     00000
__LbssCOMMON                              bssCOMMON    00000
__Lcinit                                  cinit        00017
__Lclrtext                                clrtext      00000
__Lcode                                   code         00000
__Lcommon                                 common       00000
__Lconfig                                 config       00000
__LcstackBANK0                            cstackBANK0  00000
__LcstackCOMMON                           cstackCOMMON 00000
__Leeprom_data                            eeprom_data  00000
__Lend_init                               end_init     00016
__Lfunctab                                functab      00000
__Lheap                                   heap         00000
__Lidloc                                  idloc        00000
__Linit                                   init         00016
__Lintentry                               intentry     00004
__Lmaintext                               maintext     00000
__LnvBANK0                                nvBANK0      00000
__Lpowerup                                powerup      00000
__Lram                                    ram          00000
__Lreset_vec                              reset_vec    00000
__Lsfr0                                   sfr0         00000
__Lsfr1                                   sfr1         00000
__Lsfr10                                  sfr10        00000
__Lsfr11                                  sfr11        00000
__Lsfr12                                  sfr12        00000
__Lsfr13                                  sfr13        00000
__Lsfr14                                  sfr14        00000
__Lsfr15                                  sfr15        00000
__Lsfr16                                  sfr16        00000
__Lsfr17                                  sfr17        00000
__Lsfr18                                  sfr18        00000
__Lsfr19                                  sfr19        00000
__Lsfr2                                   sfr2         00000
__Lsfr20                                  sfr20        00000
__Lsfr21                                  sfr21        00000
__Lsfr22                                  sfr22        00000
__Lsfr23                                  sfr23        00000
__Lsfr24                                  sfr24        00000
__Lsfr25                                  sfr25        00000
__Lsfr26                                  sfr26        00000
__Lsfr27                                  sfr27        00000
__Lsfr28                                  sfr28        00000
__Lsfr29                                  sfr29        00000
__Lsfr3                                   sfr3         00000
__Lsfr30                                  sfr30        00000
__Lsfr31                                  sfr31        00000
__Lsfr4                                   sfr4         00000
__Lsfr5                                   sfr5         00000
__Lsfr6                                   sfr6         00000
__Lsfr7                                   sfr7         00000
__Lsfr8                                   sfr8         00000
__Lsfr9                                   sfr9         00000
__Lspace_0                                (abs)        00000
__Lspace_1                                (abs)        00000
__Lspace_2                                (abs)        00000
__Lspace_3                                (abs)        00000
__Lspace_4                                (abs)        00000
__Lstack                                  stack        00000
__Lstrings                                strings      00000
__Lstringtext1                            stringtext1  00000
__Lstringtext10                           stringtext10 00000
__Lstringtext11                           stringtext11 00000
__Lstringtext12                           stringtext12 00000
__Lstringtext13                           stringtext13 00000
__Lstringtext14                           stringtext14 00000
__Lstringtext15                           stringtext15 00000
__Lstringtext16                           stringtext16 00000
__Lstringtext17                           stringtext17 00000
__Lstringtext18                           stringtext18 00000
__Lstringtext2                            stringtext2  00000
__Lstringtext3                            stringtext3  00000
__Lstringtext4                            stringtext4  00000
__Lstringtext5                            stringtext5  00000
__Lstringtext6                            stringtext6  00000
__Lstringtext7                            stringtext7  00000
__Lstringtext8                            stringtext8  00000
__Lstringtext9                            stringtext9  00000
__Ltext                                   text         00000
__S0                                      (abs)        0044D
__S1                                      (abs)        0007C
__S3                                      (abs)        00000
___heap_hi                                (abs)        00000
___heap_lo                                (abs)        00000
___int_sp                                 stack        00000
___latbits                                (abs)        00000
___sp                                     stack        00000
___stackhi                                (abs)        00000
___stacklo                                (abs)        00000
__end_of_ADC_GetConversion                text20       002DE
__end_of_ADC_Initialize                   text15       003F0
__end_of_AUTOROTATION_DAYS                stringtext7  00442
__end_of_AUTOROTATION_DELAY               stringtext3  00437
__end_of_BAD_WSP_VOLTAGE                  stringtext2  00435
__end_of_EEPROM_ReadByte                  text5        00339
__end_of_EEPROM_WriteByte                 text4        0023C
__end_of_FRIMWARE_VERSION_EEPROM_ADR      stringtext8  00443
__end_of_FUN_MEAS_COUNT                   stringtext15 00448
__end_of_GOOD_WSP_VOLTAGE                 stringtext1  00433
__end_of_HIGH_WATER_RESISTANSE            stringtext9  0043B
__end_of_INTERRUPT_InterruptManager       intentry     00016
__end_of_JUMP_MEAS_COUNT                  stringtext14 00447
__end_of_LONG_ZUMMER_DELAY                stringtext17 0044A
__end_of_LOW_WATER_RESISTANSE             stringtext10 0043D
__end_of_MELODY_REPEAT_DELAY              stringtext5  00440
__end_of_MOVING_WAIT_DELAY                stringtext6  00441
__end_of_OSCILLATOR_Initialize            text14       003FE
__end_of_PIN_MANAGER_Initialize           text13       002F3
__end_of_RELE_GAP                         stringtext11 00444
__end_of_RELE_POWER_AUTOROTATION_DELAY    stringtext12 00445
__end_of_RELE_POWER_WORK_DELAY            stringtext13 00446
__end_of_SHORT_ZUMMER_DELAY               stringtext18 0044B
__end_of_SYSTEM_Initialize                text7        003F7
__end_of_TMR0_DefaultInterruptHandler     text49       0044D
__end_of_TMR0_ISR                         text48       0039C
__end_of_TMR0_Initialize                  text11       00306
__end_of_TMR0_SetInterruptHandler         text12       00410
__end_of_TMR2_DefaultInterruptHandler     text35       0044C
__end_of_TMR2_ISR                         text34       003D6
__end_of_TMR2_Initialize                  text9        00348
__end_of_TMR2_SetInterruptHandler         text10       0040A
__end_of_TMR2_StartTimer                  text6        0043F
__end_of_UP_RESISTANSE                    stringtext4  00439
__end_of_WDT_Initialize                   text8        00426
__end_of_WSP_MEAS_COUNT                   stringtext16 00449
__end_of__initialization                  cinit        00023
__end_of_autorotation_work                text30       000FC
__end_of_beep_double                      text43       0041C
__end_of_beep_long                        text45       0038E
__end_of_beep_short                       text44       00380
__end_of_clear_alarm                      text19       00431
__end_of_close                            text26       003B4
__end_of_eeprom_set                       text3        00364
__end_of_fun_work                         text23       002B2
__end_of_get_fun                          text22       001A1
__end_of_get_jump                         text21       0021C
__end_of_get_wsp                          text17       000C0
__end_of_go_close                         text29       0025B
__end_of_go_close_alt                     text28       003CB
__end_of_go_close_short                   text32       00279
__end_of_go_open                          text31       00318
__end_of_go_open_alt                      text25       003DF
__end_of_hardware_work                    text16       001CB
__end_of_main                             maintext     00356
__end_of_minute_tick                      text41       00372
__end_of_ms_100_work                      text47       00422
__end_of_ms_200_work                      text42       00296
__end_of_ms_tick                          text36       001F4
__end_of_open                             text24       003A8
__end_of_rele_off                         text27       00329
__end_of_rele_tick                        text40       00137
__end_of_sec_30_work                      text39       003E8
__end_of_sec_work                         text38       0007A
__end_of_start_alarm                      text18       00416
__end_of_start_setup                      text2        0016C
__end_of_start_tone                       text46       0042E
__end_of_stop_tone                        text37       0042A
__end_of_switch_wm                        text1        002C8
__end_of_zummer_switch                    text50       003C0
__initialization                          cinit        00017
__pbitbssCOMMON                           bitbssCOMMON 003D8
__pbssBANK0                               bssBANK0     00020
__pbssCOMMON                              bssCOMMON    00076
__pcstackBANK0                            cstackBANK0  00044
__pcstackCOMMON                           cstackCOMMON 00070
__pintentry                               intentry     00004
__pmaintext                               maintext     00348
__pnvBANK0                                nvBANK0      0003F
__pstringtext1                            stringtext1  00431
__pstringtext10                           stringtext10 0043B
__pstringtext11                           stringtext11 00443
__pstringtext12                           stringtext12 00444
__pstringtext13                           stringtext13 00445
__pstringtext14                           stringtext14 00446
__pstringtext15                           stringtext15 00447
__pstringtext16                           stringtext16 00448
__pstringtext17                           stringtext17 00449
__pstringtext18                           stringtext18 0044A
__pstringtext2                            stringtext2  00433
__pstringtext3                            stringtext3  00435
__pstringtext4                            stringtext4  00437
__pstringtext5                            stringtext5  0043F
__pstringtext6                            stringtext6  00440
__pstringtext7                            stringtext7  00441
__pstringtext8                            stringtext8  00442
__pstringtext9                            stringtext9  00439
__ptext1                                  text1        002B2
__ptext10                                 text10       00404
__ptext11                                 text11       002F3
__ptext12                                 text12       0040A
__ptext13                                 text13       002DE
__ptext14                                 text14       003F7
__ptext15                                 text15       003E8
__ptext16                                 text16       001A1
__ptext17                                 text17       0007A
__ptext18                                 text18       00410
__ptext19                                 text19       0042E
__ptext2                                  text2        00137
__ptext20                                 text20       002C8
__ptext21                                 text21       001F4
__ptext22                                 text22       0016C
__ptext23                                 text23       00296
__ptext24                                 text24       0039C
__ptext25                                 text25       003D6
__ptext26                                 text26       003A8
__ptext27                                 text27       00318
__ptext28                                 text28       003C0
__ptext29                                 text29       0023C
__ptext3                                  text3        00356
__ptext30                                 text30       000C0
__ptext31                                 text31       00306
__ptext32                                 text32       0025B
__ptext34                                 text34       003CB
__ptext35                                 text35       0044B
__ptext36                                 text36       001CB
__ptext37                                 text37       00426
__ptext38                                 text38       00026
__ptext39                                 text39       003DF
__ptext4                                  text4        0021C
__ptext40                                 text40       000FC
__ptext41                                 text41       00364
__ptext42                                 text42       00279
__ptext43                                 text43       00416
__ptext44                                 text44       00372
__ptext45                                 text45       00380
__ptext46                                 text46       0042A
__ptext47                                 text47       0041C
__ptext48                                 text48       0038E
__ptext49                                 text49       0044C
__ptext5                                  text5        00329
__ptext50                                 text50       003B4
__ptext6                                  text6        0043D
__ptext7                                  text7        003F0
__ptext8                                  text8        00422
__ptext9                                  text9        00339
_autorotation_work                        text30       000C0
_beep_double                              text43       00416
_beep_long                                text45       00380
_beep_long_count                          bssBANK0     0003A
_beep_short                               text44       00372
_beep_short_count                         bssCOMMON    0007A
_clear_alarm                              text19       0042E
_close                                    text26       003A8
_eeprom_set                               text3        00356
_ff                                       bssCOMMON    00076
_fun_work                                 text23       00296
_get_fun                                  text22       0016C
_get_jump                                 text21       001F4
_get_wsp                                  text17       0007A
_go_close                                 text29       0023C
_go_close_alt                             text28       003C0
_go_close_short                           text32       0025B
_go_open                                  text31       00306
_go_open_alt                              text25       003D6
_hardware_work                            text16       001A1
_main                                     maintext     00348
_minute_tick                              text41       00364
_ms_100_work                              text47       0041C
_ms_200_work                              text42       00279
_ms_tick                                  text36       001CB
_open                                     text24       0039C
_rele_off                                 text27       00318
_rele_tick                                text40       000FC
_sec_30_work                              text39       003DF
_sec_count                                bssBANK0     0003E
_sec_work                                 text38       00026
_start_alarm                              text18       00410
_start_setup                              text2        00137
_start_tone                               text46       0042A
_stop_tone                                text37       00426
_switch_wm                                text1        002B2
_time_meas                                bssBANK0     0003B
_time_melody                              bssBANK0     0003D
_time_moving_wait                         bssBANK0     0003C
_time_rele_control                        bssBANK0     0002F
_time_rele_gap                            bssBANK0     0002D
_time_rele_power                          bssBANK0     00031
_time_rotation                            bssBANK0     00020
_time_tone                                bssBANK0     0002B
_time_zummer_long                         bssBANK0     00027
_time_zummer_short                        bssBANK0     00029
_timer0ReloadVal                          nvBANK0      00043
_zummer_switch                            text50       003B4
btemp                                     (abs)        0007E
clear_ram0                                clrtext      003FE
eeprom_set@vers                           cstackBANK0  00045
end_of_initialization                     cinit        00023
get_fun@fun_counter                       bssBANK0     00036
get_jump@jump_counter                     bssBANK0     00035
get_wsp@bad_measures_counter              bssBANK0     00037
get_wsp@res                               cstackBANK0  00044
int$flags                                 (abs)        0007E
intlevel0                                 functab      00000
intlevel1                                 functab      00000
intlevel2                                 functab      00000
intlevel3                                 functab      00000
intlevel4                                 functab      00000
intlevel5                                 functab      00000
ms_tick@ms_count                          bssBANK0     00025
ms_tick@s_count                           bssBANK0     00023
reset_vec                                 reset_vec    00000
sec_work@iled                             bssBANK0     00038
start                                     init         00016
start_initialization                      cinit        00017
wtemp0                                    (abs)        0007E


MODULE INFORMATION

Module		Function		Class		Link	Load	Size
mcc_generated_files/tmr2.c
		_TMR2_ISR      		CODE           	03CB	0000	11
		_TMR2_Initialize		CODE           	0339	0000	15
		_TMR2_SetInterruptHandler		CODE           	0404	0000	6
		_TMR2_DefaultInterruptHandler		CODE           	044B	0000	1
		_TMR2_StartTimer		CODE           	043D	0000	2

mcc_generated_files/tmr2.c estimated size: 35

mcc_generated_files/interrupt_manager.c
		_INTERRUPT_InterruptManager		CODE           	0004	0000	18

mcc_generated_files/interrupt_manager.c estimated size: 18

mcc_generated_files/tmr0.c
		_TMR0_SetInterruptHandler		CODE           	040A	0000	6
		_TMR0_DefaultInterruptHandler		CODE           	044C	0000	1
		_TMR0_ISR      		CODE           	038E	0000	14
		_TMR0_Initialize		CODE           	02F3	0000	19

mcc_generated_files/tmr0.c estimated size: 40

mcc_generated_files/pin_manager.c
		_PIN_MANAGER_Initialize		CODE           	02DE	0000	21

mcc_generated_files/pin_manager.c estimated size: 21

mcc_generated_files/adc.c
		_ADC_Initialize		CODE           	03E8	0000	8
		_ADC_GetConversion		CODE           	02C8	0000	22

mcc_generated_files/adc.c estimated size: 30

eeprom.c
		_EEPROM_WriteByte		CODE           	021C	0000	32
		_EEPROM_ReadByte		CODE           	0329	0000	16

eeprom.c estimated size: 48

shared
		_FUN_MEAS_COUNT		STRCODE        	0000	0000	0
		_RELE_GAP      		STRCODE        	0000	0000	0
		_RELE_POWER_WORK_DELAY		STRCODE        	0000	0000	0
		_HIGH_WATER_RESISTANSE		STRCODE        	0000	0000	0
		_BAD_WSP_VOLTAGE		STRCODE        	0000	0000	0
		_WSP_MEAS_COUNT		STRCODE        	0000	0000	0
		_LOW_WATER_RESISTANSE		STRCODE        	0000	0000	0
		_SHORT_ZUMMER_DELAY		STRCODE        	0000	0000	0
		_MOVING_WAIT_DELAY		STRCODE        	0000	0000	0
		_AUTOROTATION_DELAY		STRCODE        	0000	0000	0
		__initialization		CODE           	0017	0000	12
		_LONG_ZUMMER_DELAY		STRCODE        	0000	0000	0
		_FRIMWARE_VERSION_EEPROM_ADR		STRCODE        	0000	0000	0
		_UP_RESISTANSE 		STRCODE        	0000	0000	0
		_JUMP_MEAS_COUNT		STRCODE        	0000	0000	0
		_AUTOROTATION_DAYS		STRCODE        	0000	0000	0
		_RELE_POWER_AUTOROTATION_DELAY		STRCODE        	0000	0000	0
		_GOOD_WSP_VOLTAGE		STRCODE        	0000	0000	0
		_MELODY_REPEAT_DELAY		STRCODE        	0000	0000	0

shared estimated size: 12

mcc_generated_files/mcc.c
		_WDT_Initialize		CODE           	0422	0000	4
		_OSCILLATOR_Initialize		CODE           	03F7	0000	7
		_SYSTEM_Initialize		CODE           	03F0	0000	7

mcc_generated_files/mcc.c estimated size: 18

main.c
		_go_close      		CODE           	023C	0000	31
		_zummer_switch 		CODE           	03B4	0000	12
		_go_close_alt  		CODE           	03C0	0000	11
		_autorotation_work		CODE           	00C0	0000	60
		_beep_long     		CODE           	0380	0000	14
		_ms_100_work   		CODE           	041C	0000	6
		_start_alarm   		CODE           	0410	0000	6
		_hardware_work 		CODE           	01A1	0000	42
		_clear_alarm   		CODE           	042E	0000	3
		_start_tone    		CODE           	042A	0000	4
		_ms_200_work   		CODE           	0279	0000	29
		_rele_tick     		CODE           	00FC	0000	59
		_main          		CODE           	0348	0000	14
		_go_close_short		CODE           	025B	0000	30
		_minute_tick   		CODE           	0364	0000	14
		_beep_double   		CODE           	0416	0000	6
		_open          		CODE           	039C	0000	12
		_close         		CODE           	03A8	0000	12
		_rele_off      		CODE           	0318	0000	17
		_ms_tick       		CODE           	01CB	0000	41
		_switch_wm     		CODE           	02B2	0000	22
		_start_setup   		CODE           	0137	0000	53
		_sec_30_work   		CODE           	03DF	0000	9
		_get_wsp       		CODE           	007A	0000	70
		_fun_work      		CODE           	0296	0000	28
		_beep_short    		CODE           	0372	0000	14
		_stop_tone     		CODE           	0426	0000	4
		_go_open       		CODE           	0306	0000	18
		_eeprom_set    		CODE           	0356	0000	14
		_go_open_alt   		CODE           	03D6	0000	9
		_get_fun       		CODE           	016C	0000	53
		_get_jump      		CODE           	01F4	0000	40
		_sec_work      		CODE           	0026	0000	84

main.c estimated size: 841

